target datalayout = "e-m:e-p270:32:32-p271:32:32-p272:64:64-i64:64-i128:128-f80:128-n8:16:32:64-S128"
target triple = "x86_64-pc-linux-gnu"

%struct.WOLFSSL_BUFFER_INFO = type { ptr, i32 }
%struct.DecodedCert = type { ptr, i32, i32, i32, i32, i32, i32, i32, i32, i32, i32, ptr, ptr, ptr, ptr, ptr, [20 x i8], [20 x i8], ptr, ptr, i32, i8, [256 x i8], [256 x i8], i32, ptr, i32, i32, ptr, [32 x i8], i32, ptr, i32, i32, ptr, i32, ptr, i32, ptr, i32, [20 x i8], i32, [20 x i8], i32, i8, i8, i8, i16, i8, i32, ptr, i32, ptr, i32, ptr, i32, ptr, i32, i8, ptr, %struct.SignatureCtx, i32, i32, i32 }
%struct.SignatureCtx = type { ptr, ptr, ptr, ptr, i32, %union.anon, i32, i32, i32, i32, i32, i32, i32, i32 }
%union.anon = type { ptr }
%struct.DerBuffer = type { ptr, ptr, i32, i32, i32 }
%struct.WOLFSSL_X509 = type { i32, i32, %struct.WOLFSSL_ASN1_TIME, %struct.WOLFSSL_ASN1_TIME, %struct.WOLFSSL_BUFFER_INFO, i32, ptr, %struct.WOLFSSL_BUFFER_INFO, i32, ptr, i32, ptr, ptr, i8, i8, [32 x i8], [256 x i8], %struct.WOLFSSL_X509_NAME, %struct.WOLFSSL_X509_NAME }
%struct.WOLFSSL_ASN1_TIME = type { [32 x i8], i32, i32 }
%struct.WOLFSSL_X509_NAME = type { ptr, i32, i32, [256 x i8], ptr }

; Function Attrs: nounwind uwtable
define i32 @wolfSSL_X509_check_ip_asc(ptr noundef %0, ptr noundef %1, i32 noundef %2) #0 {
  %4 = alloca ptr, align 8
  %5 = alloca ptr, align 8
  %6 = alloca i32, align 4
  %7 = alloca i32, align 4
  %8 = alloca [1 x %struct.DecodedCert], align 16
  store ptr %0, ptr %4, align 8, !tbaa !296
  store ptr %1, ptr %5, align 8, !tbaa !21
  store i32 %2, ptr %6, align 4, !tbaa !7
  call void @llvm.lifetime.start.p0(i64 4, ptr %7) #9
  store i32 0, ptr %7, align 4, !tbaa !7
  call void @llvm.lifetime.start.p0(i64 1024, ptr %8) #9
  br label %9

9:                                                ; preds = %3
  br label %10

10:                                               ; preds = %9
  br label %11

11:                                               ; preds = %10
  %12 = load ptr, ptr %4, align 8, !tbaa !296
  %13 = icmp eq ptr %12, null
  br i1 %13, label %22, label %14

14:                                               ; preds = %11
  %15 = load ptr, ptr %4, align 8, !tbaa !296
  %16 = getelementptr inbounds nuw %struct.WOLFSSL_X509, ptr %15, i32 0, i32 11
  %17 = load ptr, ptr %16, align 8, !tbaa !298
  %18 = icmp eq ptr %17, null
  br i1 %18, label %22, label %19

19:                                               ; preds = %14
  %20 = load ptr, ptr %5, align 8, !tbaa !21
  %21 = icmp eq ptr %20, null
  br i1 %21, label %22, label %26

22:                                               ; preds = %19, %14, %11
  br label %23

23:                                               ; preds = %22
  br label %24

24:                                               ; preds = %23
  br label %25

25:                                               ; preds = %24
  br label %27

26:                                               ; preds = %19
  store i32 1, ptr %7, align 4, !tbaa !7
  br label %27

27:                                               ; preds = %26, %25
  %28 = load i32, ptr %7, align 4, !tbaa !7
  %29 = icmp eq i32 %28, 1
  br i1 %29, label %30, label %58

30:                                               ; preds = %27
  %31 = getelementptr inbounds [1 x %struct.DecodedCert], ptr %8, i64 0, i64 0
  %32 = load ptr, ptr %4, align 8, !tbaa !296
  %33 = getelementptr inbounds nuw %struct.WOLFSSL_X509, ptr %32, i32 0, i32 11
  %34 = load ptr, ptr %33, align 8, !tbaa !298
  %35 = getelementptr inbounds nuw %struct.DerBuffer, ptr %34, i32 0, i32 0
  %36 = load ptr, ptr %35, align 8, !tbaa !38
  %37 = load ptr, ptr %4, align 8, !tbaa !296
  %38 = getelementptr inbounds nuw %struct.WOLFSSL_X509, ptr %37, i32 0, i32 11
  %39 = load ptr, ptr %38, align 8, !tbaa !298
  %40 = getelementptr inbounds nuw %struct.DerBuffer, ptr %39, i32 0, i32 2
  %41 = load i32, ptr %40, align 8, !tbaa !40
  call void @InitDecodedCert(ptr noundef %31, ptr noundef %36, i32 noundef %41, ptr noundef null)
  %42 = getelementptr inbounds [1 x %struct.DecodedCert], ptr %8, i64 0, i64 0
  %43 = call i32 @ParseCertRelative(ptr noundef %42, i32 noundef 0, i32 noundef 0, ptr noundef null, ptr noundef null)
  store i32 %43, ptr %7, align 4, !tbaa !7
  %44 = load i32, ptr %7, align 4, !tbaa !7
  %45 = icmp ne i32 %44, 0
  br i1 %45, label %46, label %47

46:                                               ; preds = %30
  store i32 0, ptr %7, align 4, !tbaa !7
  br label %56

47:                                               ; preds = %30
  %48 = getelementptr inbounds [1 x %struct.DecodedCert], ptr %8, i64 0, i64 0
  %49 = load ptr, ptr %5, align 8, !tbaa !21
  %50 = call i32 @CheckIPAddr(ptr noundef %48, ptr noundef %49)
  store i32 %50, ptr %7, align 4, !tbaa !7
  %51 = load i32, ptr %7, align 4, !tbaa !7
  %52 = icmp ne i32 %51, 0
  br i1 %52, label %53, label %54

53:                                               ; preds = %47
  store i32 0, ptr %7, align 4, !tbaa !7
  br label %55

54:                                               ; preds = %47
  store i32 1, ptr %7, align 4, !tbaa !7
  br label %55

55:                                               ; preds = %54, %53
  br label %56

56:                                               ; preds = %55, %46
  %57 = getelementptr inbounds [1 x %struct.DecodedCert], ptr %8, i64 0, i64 0
  call void @FreeDecodedCert(ptr noundef %57)
  br label %58

58:                                               ; preds = %56, %27
  %59 = load i32, ptr %7, align 4, !tbaa !7
  call void @llvm.lifetime.end.p0(i64 1024, ptr %8) #9
  call void @llvm.lifetime.end.p0(i64 4, ptr %7) #9
  ret i32 %59
}