; Function Attrs: nounwind uwtable
define range(i32 0, 2) i32 @wolfSSL_X509_check_ip_asc(ptr noundef readonly captures(address_is_null) %0, ptr noundef %1, i32 noundef %2) local_unnamed_addr #0 {
  %4 = alloca [1 x %struct.DecodedCert], align 16
  call void @llvm.lifetime.start.p0(i64 1024, ptr nonnull %4) #22
  %5 = icmp eq ptr %0, null
  br i1 %5, label %.critedge, label %6

6:                                                ; preds = %3
  %7 = getelementptr inbounds nuw i8, ptr %0, i64 160
  %8 = load ptr, ptr %7, align 8, !tbaa !266
  %9 = icmp ne ptr %8, null
  %10 = icmp ne ptr %1, null
  %or.cond.not = and i1 %10, %9
  br i1 %or.cond.not, label %11, label %.critedge

11:                                               ; preds = %6
  %12 = load ptr, ptr %8, align 8, !tbaa !32
  %13 = getelementptr inbounds nuw i8, ptr %8, i64 16
  %14 = load i32, ptr %13, align 8, !tbaa !34
  call void @InitDecodedCert(ptr noundef nonnull %4, ptr noundef %12, i32 noundef %14, ptr noundef null) #22
  %15 = call i32 @ParseCertRelative(ptr noundef nonnull %4, i32 noundef 0, i32 noundef 0, ptr noundef null, ptr noundef null) #22
  %.not = icmp eq i32 %15, 0
  br i1 %.not, label %16, label %18

16:                                               ; preds = %11
  %17 = call i32 @CheckIPAddr(ptr noundef nonnull %4, ptr noundef nonnull %1) #22
  %.not11 = icmp eq i32 %17, 0
  %. = zext i1 %.not11 to i32
  br label %18

18:                                               ; preds = %16, %11
  %.2 = phi i32 [ 0, %11 ], [ %., %16 ]
  call void @FreeDecodedCert(ptr noundef nonnull %4) #22
  br label %.critedge

.critedge:                                        ; preds = %3, %18, %6
  %.1 = phi i32 [ %.2, %18 ], [ 0, %6 ], [ 0, %3 ]
  call void @llvm.lifetime.end.p0(i64 1024, ptr nonnull %4) #22
  ret i32 %.1
}